; Function Attrs: mustprogress uwtable
define void @_ZN7rocksdb19TransactionBaseImpl10PutLogDataERKNS_5SliceE(ptr noundef nonnull align 8 dereferenceable(400) %0, ptr noundef nonnull align 8 dereferenceable(16) %1) unnamed_addr #4 align 2 personality ptr @__gxx_personality_v0 {
  %3 = alloca %"class.rocksdb::Status", align 8
  call void @llvm.lifetime.start.p0(i64 16, ptr nonnull %3) #29
  %4 = getelementptr inbounds nuw i8, ptr %0, i64 184
  call void @_ZN7rocksdb19WriteBatchWithIndex10PutLogDataERKNS_5SliceE(ptr dead_on_unwind nonnull writable sret(%"class.rocksdb::Status") align 8 %3, ptr noundef nonnull align 8 dereferenceable(16) %4, ptr noundef nonnull align 8 dereferenceable(16) %1)
  %5 = getelementptr inbounds nuw i8, ptr %3, i64 8
  %6 = load ptr, ptr %5, align 8, !tbaa !46
  %.not.i.i = icmp eq ptr %6, null
  br i1 %.not.i.i, label %_ZN7rocksdb6StatusD2Ev.exit, label %_ZNKSt14default_deleteIA_KcEclIS0_EENSt9enable_ifIXsr14is_convertibleIPA_T_PS1_EE5valueEvE4typeEPS5_.exit.i.i

_ZNKSt14default_deleteIA_KcEclIS0_EENSt9enable_ifIXsr14is_convertibleIPA_T_PS1_EE5valueEvE4typeEPS5_.exit.i.i: ; preds = %2
  call void @_ZdaPv(ptr noundef nonnull %6) #28
  br label %_ZN7rocksdb6StatusD2Ev.exit

_ZN7rocksdb6StatusD2Ev.exit:                      ; preds = %2, %_ZNKSt14default_deleteIA_KcEclIS0_EENSt9enable_ifIXsr14is_convertibleIPA_T_PS1_EE5valueEvE4typeEPS5_.exit.i.i
  call void @llvm.lifetime.end.p0(i64 16, ptr nonnull %3) #29
  ret void
}